; Listing generated by Microsoft (R) Optimizing Compiler Version 18.00.40629.0 

	TITLE	F:\BaiduYunDownload\lab&dom\class\cg\hw2\raytracer7\surface.cpp
	.686P
	.XMM
	include listing.inc
	.model	flat

INCLUDELIB LIBCMT
INCLUDELIB OLDNAMES

PUBLIC	??0Surface@Raytracer@@QAE@HH@Z			; Raytracer::Surface::Surface
PUBLIC	??1Surface@Raytracer@@QAE@XZ			; Raytracer::Surface::~Surface
PUBLIC	?InitCharset@Surface@Raytracer@@QAEXXZ		; Raytracer::Surface::InitCharset
PUBLIC	?SetChar@Surface@Raytracer@@QAEXHPAD0000@Z	; Raytracer::Surface::SetChar
PUBLIC	?Print@Surface@Raytracer@@QAEXPADHHI@Z		; Raytracer::Surface::Print
PUBLIC	?Clear@Surface@Raytracer@@QAEXI@Z		; Raytracer::Surface::Clear
PUBLIC	??_C@_05IABEMBP@o?3?3?3o?$AA@			; `string'
PUBLIC	??_C@_05GOFGBPGP@ooooo?$AA@			; `string'
PUBLIC	??_C@_05PFNJCPDK@?3ooo?3?$AA@			; `string'
PUBLIC	??_C@_05KJJKLGHO@oooo?3?$AA@			; `string'
PUBLIC	??_C@_05DCBFIGCL@?3oooo?$AA@			; `string'
PUBLIC	??_C@_05MPMNOFAO@o?3?3?3?3?$AA@			; `string'
PUBLIC	??_C@_05MDONFKCF@ooo?3?3?$AA@			; `string'
PUBLIC	??_C@_05JOKFFPNE@o?3ooo?$AA@			; `string'
PUBLIC	??_C@_05GPFNIDNK@?3?3o?3?3?$AA@			; `string'
PUBLIC	??_C@_05PJPJJABB@?3?3?3o?3?$AA@			; `string'
PUBLIC	??_C@_05KFLKAJFF@o?3?3o?3?$AA@			; `string'
PUBLIC	??_C@_05DDBOBKJO@o?3o?3?3?$AA@			; `string'
PUBLIC	??_C@_05DPDOKFLF@oo?3?3?3?$AA@			; `string'
PUBLIC	??_C@_05PENCLDIP@o?3o?3o?$AA@			; `string'
PUBLIC	??_C@_05FFEJEJOO@oo?3o?3?$AA@			; `string'
PUBLIC	??_C@_05GCHGKAEE@o?3?3oo?$AA@			; `string'
PUBLIC	??_C@_05PIPCAMKE@oo?3?3o?$AA@			; `string'
PUBLIC	??_C@_05FEECNFFL@?3?3?3?3o?$AA@			; `string'
PUBLIC	??_C@_05JAKNAKK@?3o?3o?3?$AA@			; `string'
PUBLIC	??_C@_05GDHNDMPB@?3o?3?3?3?$AA@			; `string'
PUBLIC	??_C@_05JPKOMDGB@?3oo?3?3?$AA@			; `string'
PUBLIC	??_C@_05FCKGPIB@?3?3oo?3?$AA@			; `string'
PUBLIC	??_C@_05JDIOHMEK@?3?3?3?3?3?$AA@		; `string'
PUBLIC	??_C@_0DD@NFPEACHO@abcdefghijklmnopqrstuvwxyz012345@ ; `string'
EXTRN	??2@YAPAXI@Z:PROC				; operator new
EXTRN	??3@YAXPAX@Z:PROC				; operator delete
EXTRN	@__security_check_cookie@4:PROC
EXTRN	___security_cookie:DWORD
;	COMDAT ??_C@_0DD@NFPEACHO@abcdefghijklmnopqrstuvwxyz012345@
CONST	SEGMENT
??_C@_0DD@NFPEACHO@abcdefghijklmnopqrstuvwxyz012345@ DB 'abcdefghijklmnop'
	DB	'qrstuvwxyz0123456789!?:=,.-() #''*/', 00H	; `string'
CONST	ENDS
;	COMDAT ??_C@_05JDIOHMEK@?3?3?3?3?3?$AA@
CONST	SEGMENT
??_C@_05JDIOHMEK@?3?3?3?3?3?$AA@ DB ':::::', 00H	; `string'
CONST	ENDS
;	COMDAT ??_C@_05FCKGPIB@?3?3oo?3?$AA@
CONST	SEGMENT
??_C@_05FCKGPIB@?3?3oo?3?$AA@ DB '::oo:', 00H		; `string'
CONST	ENDS
;	COMDAT ??_C@_05JPKOMDGB@?3oo?3?3?$AA@
CONST	SEGMENT
??_C@_05JPKOMDGB@?3oo?3?3?$AA@ DB ':oo::', 00H		; `string'
CONST	ENDS
;	COMDAT ??_C@_05GDHNDMPB@?3o?3?3?3?$AA@
CONST	SEGMENT
??_C@_05GDHNDMPB@?3o?3?3?3?$AA@ DB ':o:::', 00H		; `string'
CONST	ENDS
;	COMDAT ??_C@_05JAKNAKK@?3o?3o?3?$AA@
CONST	SEGMENT
??_C@_05JAKNAKK@?3o?3o?3?$AA@ DB ':o:o:', 00H		; `string'
CONST	ENDS
;	COMDAT ??_C@_05FEECNFFL@?3?3?3?3o?$AA@
CONST	SEGMENT
??_C@_05FEECNFFL@?3?3?3?3o?$AA@ DB '::::o', 00H		; `string'
CONST	ENDS
;	COMDAT ??_C@_05PIPCAMKE@oo?3?3o?$AA@
CONST	SEGMENT
??_C@_05PIPCAMKE@oo?3?3o?$AA@ DB 'oo::o', 00H		; `string'
CONST	ENDS
;	COMDAT ??_C@_05GCHGKAEE@o?3?3oo?$AA@
CONST	SEGMENT
??_C@_05GCHGKAEE@o?3?3oo?$AA@ DB 'o::oo', 00H		; `string'
CONST	ENDS
;	COMDAT ??_C@_05FFEJEJOO@oo?3o?3?$AA@
CONST	SEGMENT
??_C@_05FFEJEJOO@oo?3o?3?$AA@ DB 'oo:o:', 00H		; `string'
CONST	ENDS
;	COMDAT ??_C@_05PENCLDIP@o?3o?3o?$AA@
CONST	SEGMENT
??_C@_05PENCLDIP@o?3o?3o?$AA@ DB 'o:o:o', 00H		; `string'
CONST	ENDS
;	COMDAT ??_C@_05DPDOKFLF@oo?3?3?3?$AA@
CONST	SEGMENT
??_C@_05DPDOKFLF@oo?3?3?3?$AA@ DB 'oo:::', 00H		; `string'
CONST	ENDS
;	COMDAT ??_C@_05DDBOBKJO@o?3o?3?3?$AA@
CONST	SEGMENT
??_C@_05DDBOBKJO@o?3o?3?3?$AA@ DB 'o:o::', 00H		; `string'
CONST	ENDS
;	COMDAT ??_C@_05KFLKAJFF@o?3?3o?3?$AA@
CONST	SEGMENT
??_C@_05KFLKAJFF@o?3?3o?3?$AA@ DB 'o::o:', 00H		; `string'
CONST	ENDS
;	COMDAT ??_C@_05PJPJJABB@?3?3?3o?3?$AA@
CONST	SEGMENT
??_C@_05PJPJJABB@?3?3?3o?3?$AA@ DB ':::o:', 00H		; `string'
CONST	ENDS
;	COMDAT ??_C@_05GPFNIDNK@?3?3o?3?3?$AA@
CONST	SEGMENT
??_C@_05GPFNIDNK@?3?3o?3?3?$AA@ DB '::o::', 00H		; `string'
CONST	ENDS
;	COMDAT ??_C@_05JOKFFPNE@o?3ooo?$AA@
CONST	SEGMENT
??_C@_05JOKFFPNE@o?3ooo?$AA@ DB 'o:ooo', 00H		; `string'
CONST	ENDS
;	COMDAT ??_C@_05MDONFKCF@ooo?3?3?$AA@
CONST	SEGMENT
??_C@_05MDONFKCF@ooo?3?3?$AA@ DB 'ooo::', 00H		; `string'
CONST	ENDS
;	COMDAT ??_C@_05MPMNOFAO@o?3?3?3?3?$AA@
CONST	SEGMENT
??_C@_05MPMNOFAO@o?3?3?3?3?$AA@ DB 'o::::', 00H		; `string'
CONST	ENDS
;	COMDAT ??_C@_05DCBFIGCL@?3oooo?$AA@
CONST	SEGMENT
??_C@_05DCBFIGCL@?3oooo?$AA@ DB ':oooo', 00H		; `string'
CONST	ENDS
;	COMDAT ??_C@_05KJJKLGHO@oooo?3?$AA@
CONST	SEGMENT
??_C@_05KJJKLGHO@oooo?3?$AA@ DB 'oooo:', 00H		; `string'
CONST	ENDS
;	COMDAT ??_C@_05PFNJCPDK@?3ooo?3?$AA@
CONST	SEGMENT
??_C@_05PFNJCPDK@?3ooo?3?$AA@ DB ':ooo:', 00H		; `string'
CONST	ENDS
;	COMDAT ??_C@_05GOFGBPGP@ooooo?$AA@
CONST	SEGMENT
??_C@_05GOFGBPGP@ooooo?$AA@ DB 'ooooo', 00H		; `string'
CONST	ENDS
;	COMDAT ??_C@_05IABEMBP@o?3?3?3o?$AA@
CONST	SEGMENT
??_C@_05IABEMBP@o?3?3?3o?$AA@ DB 'o:::o', 00H		; `string'
CONST	ENDS
; Function compile flags: /Ogtp
; File f:\baiduyundownload\lab&dom\class\cg\hw2\raytracer7\surface.cpp
;	COMDAT ?Clear@Surface@Raytracer@@QAEXI@Z
_TEXT	SEGMENT
_a_Color$ = 8						; size = 4
?Clear@Surface@Raytracer@@QAEXI@Z PROC			; Raytracer::Surface::Clear, COMDAT
; _this$ = ecx

; 30   : {

	push	ebp
	mov	ebp, esp
	push	esi
	mov	esi, ecx

; 31   : 	int s = m_Width * m_Height;
; 32   : 	for ( int i = 0; i < s; i++ ) m_Buffer[i] = a_Color;

	xor	eax, eax
	mov	edx, DWORD PTR [esi+8]
	imul	edx, DWORD PTR [esi+4]
	test	edx, edx
	jle	SHORT $LN1@Clear
	push	edi
	mov	edi, DWORD PTR _a_Color$[ebp]
$LL3@Clear:
	mov	ecx, DWORD PTR [esi]
	mov	DWORD PTR [ecx+eax*4], edi
	inc	eax
	cmp	eax, edx
	jl	SHORT $LL3@Clear
	pop	edi
$LN1@Clear:
	pop	esi

; 33   : }

	pop	ebp
	ret	4
?Clear@Surface@Raytracer@@QAEXI@Z ENDP			; Raytracer::Surface::Clear
_TEXT	ENDS
; Function compile flags: /Ogtp
; File f:\baiduyundownload\lab&dom\class\cg\hw2\raytracer7\surface.cpp
;	COMDAT ?Print@Surface@Raytracer@@QAEXPADHHI@Z
_TEXT	SEGMENT
_this$1$ = -4						; size = 4
_a_String$ = 8						; size = 4
_i$1$ = 12						; size = 4
_x1$ = 12						; size = 4
_t$1$ = 16						; size = 4
_y1$ = 16						; size = 4
_color$ = 20						; size = 4
?Print@Surface@Raytracer@@QAEXPADHHI@Z PROC		; Raytracer::Surface::Print, COMDAT
; _this$ = ecx

; 36   : {

	push	ebp
	mov	ebp, esp
	push	ecx
	push	ebx
	mov	ebx, ecx

; 37   : 	Pixel* t = m_Buffer + x1 + y1 * m_Width;
; 38   : 	int i;
; 39   : 	for ( i = 0; i < (int)(strlen( a_String )); i++ )

	mov	ecx, DWORD PTR _a_String$[ebp]
	push	esi
	mov	DWORD PTR _this$1$[ebp], ebx
	mov	edx, DWORD PTR [ebx+4]
	imul	edx, DWORD PTR _y1$[ebp]
	mov	eax, DWORD PTR [ebx]
	add	edx, DWORD PTR _x1$[ebp]
	xor	esi, esi
	mov	DWORD PTR _i$1$[ebp], esi
	lea	eax, DWORD PTR [eax+edx*4]
	mov	DWORD PTR _t$1$[ebp], eax
	lea	edx, DWORD PTR [ecx+1]
$LL27@Print:
	mov	al, BYTE PTR [ecx]
	inc	ecx
	test	al, al
	jne	SHORT $LL27@Print
	sub	ecx, edx
	test	ecx, ecx
	jle	$LN10@Print
	push	edi
	mov	edi, DWORD PTR _color$[ebp]
	npad	3
$LL12@Print:

; 40   : 	{	
; 41   : 		long pos = 0;
; 42   : 		if ((a_String[i] >= 'A') && (a_String[i] <= 'Z')) pos = s_Transl[a_String[i] - ('A' - 'a')];

	mov	eax, DWORD PTR _a_String$[ebp]
	mov	al, BYTE PTR [esi+eax]
	cmp	al, 65					; 00000041H
	jl	SHORT $LN9@Print
	cmp	al, 90					; 0000005aH
	jg	SHORT $LN9@Print
	movsx	eax, al
	mov	eax, DWORD PTR [ebx+eax*4+1416]
	jmp	SHORT $LN8@Print
$LN9@Print:

; 43   : 													 else pos = s_Transl[a_String[i]];

	movsx	eax, al
	mov	eax, DWORD PTR [ebx+eax*4+1288]
$LN8@Print:

; 44   : 		Pixel* a = t;

	mov	esi, DWORD PTR _t$1$[ebp]

; 45   : 		char* c = (char*)s_Font[pos];

	lea	edx, DWORD PTR [ebx+12]
	imul	eax, eax, 25
	mov	ebx, 5
	add	edx, eax
$LL7@Print:

; 46   : 		int h, v;
; 47   : 		for ( v = 0; v < 5; v++ ) 
; 48   : 		{
; 49   : 			for ( h = 0; h < 5; h++ ) if (*c++ == 'o') *(a + h) = color;

	xor	eax, eax
$LL4@Print:
	mov	cl, BYTE PTR [edx]
	inc	edx
	cmp	cl, 111					; 0000006fH
	jne	SHORT $LN3@Print
	mov	DWORD PTR [esi+eax*4], edi
$LN3@Print:
	inc	eax
	cmp	eax, 5
	jl	SHORT $LL4@Print

; 50   : 			a += m_Width;

	mov	eax, DWORD PTR _this$1$[ebp]
	mov	eax, DWORD PTR [eax+4]
	lea	esi, DWORD PTR [esi+eax*4]
	dec	ebx
	jne	SHORT $LL7@Print

; 37   : 	Pixel* t = m_Buffer + x1 + y1 * m_Width;
; 38   : 	int i;
; 39   : 	for ( i = 0; i < (int)(strlen( a_String )); i++ )

	mov	esi, DWORD PTR _i$1$[ebp]
	mov	ecx, DWORD PTR _a_String$[ebp]

; 51   : 		}
; 52   : 		t += 6;

	add	DWORD PTR _t$1$[ebp], 24		; 00000018H
	inc	esi
	mov	DWORD PTR _i$1$[ebp], esi
	lea	edx, DWORD PTR [ecx+1]
$LL28@Print:

; 37   : 	Pixel* t = m_Buffer + x1 + y1 * m_Width;
; 38   : 	int i;
; 39   : 	for ( i = 0; i < (int)(strlen( a_String )); i++ )

	mov	al, BYTE PTR [ecx]
	inc	ecx
	test	al, al
	jne	SHORT $LL28@Print
	mov	ebx, DWORD PTR _this$1$[ebp]
	sub	ecx, edx
	cmp	esi, ecx
	jl	SHORT $LL12@Print
	pop	edi
$LN10@Print:
	pop	esi
	pop	ebx

; 53   : 	}
; 54   : }

	mov	esp, ebp
	pop	ebp
	ret	16					; 00000010H
?Print@Surface@Raytracer@@QAEXPADHHI@Z ENDP		; Raytracer::Surface::Print
_TEXT	ENDS
; Function compile flags: /Ogtp
; File f:\baiduyundownload\lab&dom\class\cg\hw2\raytracer7\surface.cpp
;	COMDAT ?SetChar@Surface@Raytracer@@QAEXHPAD0000@Z
_TEXT	SEGMENT
_c$ = 8							; size = 4
_c1$ = 12						; size = 4
_c2$ = 16						; size = 4
_c3$ = 20						; size = 4
_c4$ = 24						; size = 4
_c5$ = 28						; size = 4
?SetChar@Surface@Raytracer@@QAEXHPAD0000@Z PROC		; Raytracer::Surface::SetChar, COMDAT
; _this$ = ecx

; 57   : {

	push	ebp
	mov	ebp, esp

; 58   : 	strcpy( s_Font[c][0], c1 );

	mov	edx, DWORD PTR _c1$[ebp]
	push	esi
	imul	esi, DWORD PTR _c$[ebp], 25
	add	esi, ecx
	lea	ecx, DWORD PTR [esi+12]
	sub	ecx, edx
$LL3@SetChar:
	mov	al, BYTE PTR [edx]
	lea	edx, DWORD PTR [edx+1]
	mov	BYTE PTR [ecx+edx-1], al
	test	al, al
	jne	SHORT $LL3@SetChar

; 59   : 	strcpy( s_Font[c][1], c2 );

	mov	ecx, DWORD PTR _c2$[ebp]
	lea	edx, DWORD PTR [esi+17]
	sub	edx, ecx
$LL4@SetChar:
	mov	al, BYTE PTR [ecx]
	lea	ecx, DWORD PTR [ecx+1]
	mov	BYTE PTR [edx+ecx-1], al
	test	al, al
	jne	SHORT $LL4@SetChar

; 60   : 	strcpy( s_Font[c][2], c3 );

	mov	ecx, DWORD PTR _c3$[ebp]
	lea	edx, DWORD PTR [esi+22]
	sub	edx, ecx
	npad	4
$LL5@SetChar:
	mov	al, BYTE PTR [ecx]
	lea	ecx, DWORD PTR [ecx+1]
	mov	BYTE PTR [edx+ecx-1], al
	test	al, al
	jne	SHORT $LL5@SetChar

; 61   : 	strcpy( s_Font[c][3], c4 );

	mov	ecx, DWORD PTR _c4$[ebp]
	lea	edx, DWORD PTR [esi+27]
	sub	edx, ecx
$LL6@SetChar:
	mov	al, BYTE PTR [ecx]
	lea	ecx, DWORD PTR [ecx+1]
	mov	BYTE PTR [edx+ecx-1], al
	test	al, al
	jne	SHORT $LL6@SetChar

; 62   : 	strcpy( s_Font[c][4], c5 );

	mov	ecx, DWORD PTR _c5$[ebp]
	lea	edx, DWORD PTR [esi+32]
	sub	edx, ecx
	pop	esi
	npad	5
$LL7@SetChar:
	mov	al, BYTE PTR [ecx]
	lea	ecx, DWORD PTR [ecx+1]
	mov	BYTE PTR [edx+ecx-1], al
	test	al, al
	jne	SHORT $LL7@SetChar

; 63   : }

	pop	ebp
	ret	24					; 00000018H
?SetChar@Surface@Raytracer@@QAEXHPAD0000@Z ENDP		; Raytracer::Surface::SetChar
_TEXT	ENDS
; Function compile flags: /Ogtp
; File f:\baiduyundownload\lab&dom\class\cg\hw2\raytracer7\surface.cpp
;	COMDAT ?InitCharset@Surface@Raytracer@@QAEXXZ
_TEXT	SEGMENT
_c$ = -56						; size = 51
__$ArrayPad$ = -4					; size = 4
?InitCharset@Surface@Raytracer@@QAEXXZ PROC		; Raytracer::Surface::InitCharset, COMDAT
; _this$ = ecx

; 66   : {

	push	ebp
	mov	ebp, esp
	sub	esp, 56					; 00000038H
	mov	eax, DWORD PTR ___security_cookie
	xor	eax, ebp
	mov	DWORD PTR __$ArrayPad$[ebp], eax
	push	esi
	push	edi

; 67   : 	SetChar( 0, ":ooo:", "o:::o", "ooooo", "o:::o", "o:::o" );

	push	OFFSET ??_C@_05IABEMBP@o?3?3?3o?$AA@
	push	OFFSET ??_C@_05IABEMBP@o?3?3?3o?$AA@
	push	OFFSET ??_C@_05GOFGBPGP@ooooo?$AA@
	push	OFFSET ??_C@_05IABEMBP@o?3?3?3o?$AA@
	push	OFFSET ??_C@_05PFNJCPDK@?3ooo?3?$AA@
	push	0
	mov	esi, ecx
	call	?SetChar@Surface@Raytracer@@QAEXHPAD0000@Z ; Raytracer::Surface::SetChar

; 68   : 	SetChar( 1, "oooo:", "o:::o", "oooo:", "o:::o", "oooo:" );

	push	OFFSET ??_C@_05KJJKLGHO@oooo?3?$AA@
	push	OFFSET ??_C@_05IABEMBP@o?3?3?3o?$AA@
	push	OFFSET ??_C@_05KJJKLGHO@oooo?3?$AA@
	push	OFFSET ??_C@_05IABEMBP@o?3?3?3o?$AA@
	push	OFFSET ??_C@_05KJJKLGHO@oooo?3?$AA@
	push	1
	mov	ecx, esi
	call	?SetChar@Surface@Raytracer@@QAEXHPAD0000@Z ; Raytracer::Surface::SetChar

; 69   : 	SetChar( 2, ":oooo", "o::::", "o::::", "o::::", ":oooo" );

	push	OFFSET ??_C@_05DCBFIGCL@?3oooo?$AA@
	push	OFFSET ??_C@_05MPMNOFAO@o?3?3?3?3?$AA@
	push	OFFSET ??_C@_05MPMNOFAO@o?3?3?3?3?$AA@
	push	OFFSET ??_C@_05MPMNOFAO@o?3?3?3?3?$AA@
	push	OFFSET ??_C@_05DCBFIGCL@?3oooo?$AA@
	push	2
	mov	ecx, esi
	call	?SetChar@Surface@Raytracer@@QAEXHPAD0000@Z ; Raytracer::Surface::SetChar

; 70   : 	SetChar( 3, "oooo:", "o:::o", "o:::o", "o:::o", "oooo:" );

	push	OFFSET ??_C@_05KJJKLGHO@oooo?3?$AA@
	push	OFFSET ??_C@_05IABEMBP@o?3?3?3o?$AA@
	push	OFFSET ??_C@_05IABEMBP@o?3?3?3o?$AA@
	push	OFFSET ??_C@_05IABEMBP@o?3?3?3o?$AA@
	push	OFFSET ??_C@_05KJJKLGHO@oooo?3?$AA@
	push	3
	mov	ecx, esi
	call	?SetChar@Surface@Raytracer@@QAEXHPAD0000@Z ; Raytracer::Surface::SetChar

; 71   : 	SetChar( 4, "ooooo", "o::::", "oooo:", "o::::", "ooooo" );

	push	OFFSET ??_C@_05GOFGBPGP@ooooo?$AA@
	push	OFFSET ??_C@_05MPMNOFAO@o?3?3?3?3?$AA@
	push	OFFSET ??_C@_05KJJKLGHO@oooo?3?$AA@
	push	OFFSET ??_C@_05MPMNOFAO@o?3?3?3?3?$AA@
	push	OFFSET ??_C@_05GOFGBPGP@ooooo?$AA@
	push	4
	mov	ecx, esi
	call	?SetChar@Surface@Raytracer@@QAEXHPAD0000@Z ; Raytracer::Surface::SetChar

; 72   : 	SetChar( 5, "ooooo", "o::::", "ooo::", "o::::", "o::::" );

	push	OFFSET ??_C@_05MPMNOFAO@o?3?3?3?3?$AA@
	push	OFFSET ??_C@_05MPMNOFAO@o?3?3?3?3?$AA@
	push	OFFSET ??_C@_05MDONFKCF@ooo?3?3?$AA@
	push	OFFSET ??_C@_05MPMNOFAO@o?3?3?3?3?$AA@
	push	OFFSET ??_C@_05GOFGBPGP@ooooo?$AA@
	push	5
	mov	ecx, esi
	call	?SetChar@Surface@Raytracer@@QAEXHPAD0000@Z ; Raytracer::Surface::SetChar

; 73   : 	SetChar( 6, ":oooo", "o::::", "o:ooo", "o:::o", ":ooo:" );

	push	OFFSET ??_C@_05PFNJCPDK@?3ooo?3?$AA@
	push	OFFSET ??_C@_05IABEMBP@o?3?3?3o?$AA@
	push	OFFSET ??_C@_05JOKFFPNE@o?3ooo?$AA@
	push	OFFSET ??_C@_05MPMNOFAO@o?3?3?3?3?$AA@
	push	OFFSET ??_C@_05DCBFIGCL@?3oooo?$AA@
	push	6
	mov	ecx, esi
	call	?SetChar@Surface@Raytracer@@QAEXHPAD0000@Z ; Raytracer::Surface::SetChar

; 74   : 	SetChar( 7, "o:::o", "o:::o", "ooooo", "o:::o", "o:::o" );

	push	OFFSET ??_C@_05IABEMBP@o?3?3?3o?$AA@
	push	OFFSET ??_C@_05IABEMBP@o?3?3?3o?$AA@
	push	OFFSET ??_C@_05GOFGBPGP@ooooo?$AA@
	push	OFFSET ??_C@_05IABEMBP@o?3?3?3o?$AA@
	push	OFFSET ??_C@_05IABEMBP@o?3?3?3o?$AA@
	push	7
	mov	ecx, esi
	call	?SetChar@Surface@Raytracer@@QAEXHPAD0000@Z ; Raytracer::Surface::SetChar

; 75   : 	SetChar( 8, "::o::", "::o::", "::o::", "::o::", "::o::" );

	push	OFFSET ??_C@_05GPFNIDNK@?3?3o?3?3?$AA@
	push	OFFSET ??_C@_05GPFNIDNK@?3?3o?3?3?$AA@
	push	OFFSET ??_C@_05GPFNIDNK@?3?3o?3?3?$AA@
	push	OFFSET ??_C@_05GPFNIDNK@?3?3o?3?3?$AA@
	push	OFFSET ??_C@_05GPFNIDNK@?3?3o?3?3?$AA@
	push	8
	mov	ecx, esi
	call	?SetChar@Surface@Raytracer@@QAEXHPAD0000@Z ; Raytracer::Surface::SetChar

; 76   : 	SetChar( 9, ":::o:", ":::o:", ":::o:", ":::o:", "ooo::" );

	push	OFFSET ??_C@_05MDONFKCF@ooo?3?3?$AA@
	push	OFFSET ??_C@_05PJPJJABB@?3?3?3o?3?$AA@
	push	OFFSET ??_C@_05PJPJJABB@?3?3?3o?3?$AA@
	push	OFFSET ??_C@_05PJPJJABB@?3?3?3o?3?$AA@
	push	OFFSET ??_C@_05PJPJJABB@?3?3?3o?3?$AA@
	push	9
	mov	ecx, esi
	call	?SetChar@Surface@Raytracer@@QAEXHPAD0000@Z ; Raytracer::Surface::SetChar

; 77   : 	SetChar(10, "o::o:", "o:o::", "oo:::", "o:o::", "o::o:" );

	push	OFFSET ??_C@_05KFLKAJFF@o?3?3o?3?$AA@
	push	OFFSET ??_C@_05DDBOBKJO@o?3o?3?3?$AA@
	push	OFFSET ??_C@_05DPDOKFLF@oo?3?3?3?$AA@
	push	OFFSET ??_C@_05DDBOBKJO@o?3o?3?3?$AA@
	push	OFFSET ??_C@_05KFLKAJFF@o?3?3o?3?$AA@
	push	10					; 0000000aH
	mov	ecx, esi
	call	?SetChar@Surface@Raytracer@@QAEXHPAD0000@Z ; Raytracer::Surface::SetChar

; 78   : 	SetChar(11, "o::::", "o::::", "o::::", "o::::", "ooooo" );

	push	OFFSET ??_C@_05GOFGBPGP@ooooo?$AA@
	push	OFFSET ??_C@_05MPMNOFAO@o?3?3?3?3?$AA@
	push	OFFSET ??_C@_05MPMNOFAO@o?3?3?3?3?$AA@
	push	OFFSET ??_C@_05MPMNOFAO@o?3?3?3?3?$AA@
	push	OFFSET ??_C@_05MPMNOFAO@o?3?3?3?3?$AA@
	push	11					; 0000000bH
	mov	ecx, esi
	call	?SetChar@Surface@Raytracer@@QAEXHPAD0000@Z ; Raytracer::Surface::SetChar

; 79   : 	SetChar(12, "oo:o:", "o:o:o", "o:o:o", "o:::o", "o:::o" );

	push	OFFSET ??_C@_05IABEMBP@o?3?3?3o?$AA@
	push	OFFSET ??_C@_05IABEMBP@o?3?3?3o?$AA@
	push	OFFSET ??_C@_05PENCLDIP@o?3o?3o?$AA@
	push	OFFSET ??_C@_05PENCLDIP@o?3o?3o?$AA@
	push	OFFSET ??_C@_05FFEJEJOO@oo?3o?3?$AA@
	push	12					; 0000000cH
	mov	ecx, esi
	call	?SetChar@Surface@Raytracer@@QAEXHPAD0000@Z ; Raytracer::Surface::SetChar

; 80   : 	SetChar(13, "o:::o", "oo::o", "o:o:o", "o::oo", "o:::o" );

	push	OFFSET ??_C@_05IABEMBP@o?3?3?3o?$AA@
	push	OFFSET ??_C@_05GCHGKAEE@o?3?3oo?$AA@
	push	OFFSET ??_C@_05PENCLDIP@o?3o?3o?$AA@
	push	OFFSET ??_C@_05PIPCAMKE@oo?3?3o?$AA@
	push	OFFSET ??_C@_05IABEMBP@o?3?3?3o?$AA@
	push	13					; 0000000dH
	mov	ecx, esi
	call	?SetChar@Surface@Raytracer@@QAEXHPAD0000@Z ; Raytracer::Surface::SetChar

; 81   : 	SetChar(14, ":ooo:", "o:::o", "o:::o", "o:::o", ":ooo:" );

	push	OFFSET ??_C@_05PFNJCPDK@?3ooo?3?$AA@
	push	OFFSET ??_C@_05IABEMBP@o?3?3?3o?$AA@
	push	OFFSET ??_C@_05IABEMBP@o?3?3?3o?$AA@
	push	OFFSET ??_C@_05IABEMBP@o?3?3?3o?$AA@
	push	OFFSET ??_C@_05PFNJCPDK@?3ooo?3?$AA@
	push	14					; 0000000eH
	mov	ecx, esi
	call	?SetChar@Surface@Raytracer@@QAEXHPAD0000@Z ; Raytracer::Surface::SetChar

; 82   : 	SetChar(15, "oooo:", "o:::o", "oooo:", "o::::", "o::::" );

	push	OFFSET ??_C@_05MPMNOFAO@o?3?3?3?3?$AA@
	push	OFFSET ??_C@_05MPMNOFAO@o?3?3?3?3?$AA@
	push	OFFSET ??_C@_05KJJKLGHO@oooo?3?$AA@
	push	OFFSET ??_C@_05IABEMBP@o?3?3?3o?$AA@
	push	OFFSET ??_C@_05KJJKLGHO@oooo?3?$AA@
	push	15					; 0000000fH
	mov	ecx, esi
	call	?SetChar@Surface@Raytracer@@QAEXHPAD0000@Z ; Raytracer::Surface::SetChar

; 83   : 	SetChar(16, ":ooo:", "o:::o", "o:::o", "o::oo", ":oooo" );

	push	OFFSET ??_C@_05DCBFIGCL@?3oooo?$AA@
	push	OFFSET ??_C@_05GCHGKAEE@o?3?3oo?$AA@
	push	OFFSET ??_C@_05IABEMBP@o?3?3?3o?$AA@
	push	OFFSET ??_C@_05IABEMBP@o?3?3?3o?$AA@
	push	OFFSET ??_C@_05PFNJCPDK@?3ooo?3?$AA@
	push	16					; 00000010H
	mov	ecx, esi
	call	?SetChar@Surface@Raytracer@@QAEXHPAD0000@Z ; Raytracer::Surface::SetChar

; 84   : 	SetChar(17, "oooo:", "o:::o", "oooo:", "o:o::", "o::o:" );

	push	OFFSET ??_C@_05KFLKAJFF@o?3?3o?3?$AA@
	push	OFFSET ??_C@_05DDBOBKJO@o?3o?3?3?$AA@
	push	OFFSET ??_C@_05KJJKLGHO@oooo?3?$AA@
	push	OFFSET ??_C@_05IABEMBP@o?3?3?3o?$AA@
	push	OFFSET ??_C@_05KJJKLGHO@oooo?3?$AA@
	push	17					; 00000011H
	mov	ecx, esi
	call	?SetChar@Surface@Raytracer@@QAEXHPAD0000@Z ; Raytracer::Surface::SetChar

; 85   : 	SetChar(18, ":oooo", "o::::", ":ooo:", "::::o", "oooo:" );

	push	OFFSET ??_C@_05KJJKLGHO@oooo?3?$AA@
	push	OFFSET ??_C@_05FEECNFFL@?3?3?3?3o?$AA@
	push	OFFSET ??_C@_05PFNJCPDK@?3ooo?3?$AA@
	push	OFFSET ??_C@_05MPMNOFAO@o?3?3?3?3?$AA@
	push	OFFSET ??_C@_05DCBFIGCL@?3oooo?$AA@
	push	18					; 00000012H
	mov	ecx, esi
	call	?SetChar@Surface@Raytracer@@QAEXHPAD0000@Z ; Raytracer::Surface::SetChar

; 86   : 	SetChar(19, "ooooo", "::o::", "::o::", "::o::", "::o::" );

	push	OFFSET ??_C@_05GPFNIDNK@?3?3o?3?3?$AA@
	push	OFFSET ??_C@_05GPFNIDNK@?3?3o?3?3?$AA@
	push	OFFSET ??_C@_05GPFNIDNK@?3?3o?3?3?$AA@
	push	OFFSET ??_C@_05GPFNIDNK@?3?3o?3?3?$AA@
	push	OFFSET ??_C@_05GOFGBPGP@ooooo?$AA@
	push	19					; 00000013H
	mov	ecx, esi
	call	?SetChar@Surface@Raytracer@@QAEXHPAD0000@Z ; Raytracer::Surface::SetChar

; 87   : 	SetChar(20, "o:::o", "o:::o", "o:::o", "o:::o", ":oooo" );

	push	OFFSET ??_C@_05DCBFIGCL@?3oooo?$AA@
	push	OFFSET ??_C@_05IABEMBP@o?3?3?3o?$AA@
	push	OFFSET ??_C@_05IABEMBP@o?3?3?3o?$AA@
	push	OFFSET ??_C@_05IABEMBP@o?3?3?3o?$AA@
	push	OFFSET ??_C@_05IABEMBP@o?3?3?3o?$AA@
	push	20					; 00000014H
	mov	ecx, esi
	call	?SetChar@Surface@Raytracer@@QAEXHPAD0000@Z ; Raytracer::Surface::SetChar

; 88   : 	SetChar(21, "o:::o", "o:::o", ":o:o:", ":o:o:", "::o::" );

	push	OFFSET ??_C@_05GPFNIDNK@?3?3o?3?3?$AA@
	push	OFFSET ??_C@_05JAKNAKK@?3o?3o?3?$AA@
	push	OFFSET ??_C@_05JAKNAKK@?3o?3o?3?$AA@
	push	OFFSET ??_C@_05IABEMBP@o?3?3?3o?$AA@
	push	OFFSET ??_C@_05IABEMBP@o?3?3?3o?$AA@
	push	21					; 00000015H
	mov	ecx, esi
	call	?SetChar@Surface@Raytracer@@QAEXHPAD0000@Z ; Raytracer::Surface::SetChar

; 89   : 	SetChar(22, "o:::o", "o:::o", "o:o:o", "o:o:o", ":o:o:" );

	push	OFFSET ??_C@_05JAKNAKK@?3o?3o?3?$AA@
	push	OFFSET ??_C@_05PENCLDIP@o?3o?3o?$AA@
	push	OFFSET ??_C@_05PENCLDIP@o?3o?3o?$AA@
	push	OFFSET ??_C@_05IABEMBP@o?3?3?3o?$AA@
	push	OFFSET ??_C@_05IABEMBP@o?3?3?3o?$AA@
	push	22					; 00000016H
	mov	ecx, esi
	call	?SetChar@Surface@Raytracer@@QAEXHPAD0000@Z ; Raytracer::Surface::SetChar

; 90   : 	SetChar(23, "o:::o", ":o:o:", "::o::", ":o:o:", "o:::o" );

	push	OFFSET ??_C@_05IABEMBP@o?3?3?3o?$AA@
	push	OFFSET ??_C@_05JAKNAKK@?3o?3o?3?$AA@
	push	OFFSET ??_C@_05GPFNIDNK@?3?3o?3?3?$AA@
	push	OFFSET ??_C@_05JAKNAKK@?3o?3o?3?$AA@
	push	OFFSET ??_C@_05IABEMBP@o?3?3?3o?$AA@
	push	23					; 00000017H
	mov	ecx, esi
	call	?SetChar@Surface@Raytracer@@QAEXHPAD0000@Z ; Raytracer::Surface::SetChar

; 91   : 	SetChar(24, "o:::o", "o:::o", ":oooo", "::::o", ":ooo:" );

	push	OFFSET ??_C@_05PFNJCPDK@?3ooo?3?$AA@
	push	OFFSET ??_C@_05FEECNFFL@?3?3?3?3o?$AA@
	push	OFFSET ??_C@_05DCBFIGCL@?3oooo?$AA@
	push	OFFSET ??_C@_05IABEMBP@o?3?3?3o?$AA@
	push	OFFSET ??_C@_05IABEMBP@o?3?3?3o?$AA@
	push	24					; 00000018H
	mov	ecx, esi
	call	?SetChar@Surface@Raytracer@@QAEXHPAD0000@Z ; Raytracer::Surface::SetChar

; 92   : 	SetChar(25, "ooooo", ":::o:", "::o::", ":o:::", "ooooo" );

	push	OFFSET ??_C@_05GOFGBPGP@ooooo?$AA@
	push	OFFSET ??_C@_05GDHNDMPB@?3o?3?3?3?$AA@
	push	OFFSET ??_C@_05GPFNIDNK@?3?3o?3?3?$AA@
	push	OFFSET ??_C@_05PJPJJABB@?3?3?3o?3?$AA@
	push	OFFSET ??_C@_05GOFGBPGP@ooooo?$AA@
	push	25					; 00000019H
	mov	ecx, esi
	call	?SetChar@Surface@Raytracer@@QAEXHPAD0000@Z ; Raytracer::Surface::SetChar

; 93   : 	SetChar(26, ":ooo:", "o::oo", "o:o:o", "oo::o", ":ooo:" );

	push	OFFSET ??_C@_05PFNJCPDK@?3ooo?3?$AA@
	push	OFFSET ??_C@_05PIPCAMKE@oo?3?3o?$AA@
	push	OFFSET ??_C@_05PENCLDIP@o?3o?3o?$AA@
	push	OFFSET ??_C@_05GCHGKAEE@o?3?3oo?$AA@
	push	OFFSET ??_C@_05PFNJCPDK@?3ooo?3?$AA@
	push	26					; 0000001aH
	mov	ecx, esi
	call	?SetChar@Surface@Raytracer@@QAEXHPAD0000@Z ; Raytracer::Surface::SetChar

; 94   : 	SetChar(27, "::o::", ":oo::", "::o::", "::o::", ":ooo:" );

	push	OFFSET ??_C@_05PFNJCPDK@?3ooo?3?$AA@
	push	OFFSET ??_C@_05GPFNIDNK@?3?3o?3?3?$AA@
	push	OFFSET ??_C@_05GPFNIDNK@?3?3o?3?3?$AA@
	push	OFFSET ??_C@_05JPKOMDGB@?3oo?3?3?$AA@
	push	OFFSET ??_C@_05GPFNIDNK@?3?3o?3?3?$AA@
	push	27					; 0000001bH
	mov	ecx, esi
	call	?SetChar@Surface@Raytracer@@QAEXHPAD0000@Z ; Raytracer::Surface::SetChar

; 95   : 	SetChar(28, ":ooo:", "o:::o", "::oo:", ":o:::", "ooooo" );

	push	OFFSET ??_C@_05GOFGBPGP@ooooo?$AA@
	push	OFFSET ??_C@_05GDHNDMPB@?3o?3?3?3?$AA@
	push	OFFSET ??_C@_05FCKGPIB@?3?3oo?3?$AA@
	push	OFFSET ??_C@_05IABEMBP@o?3?3?3o?$AA@
	push	OFFSET ??_C@_05PFNJCPDK@?3ooo?3?$AA@
	push	28					; 0000001cH
	mov	ecx, esi
	call	?SetChar@Surface@Raytracer@@QAEXHPAD0000@Z ; Raytracer::Surface::SetChar

; 96   : 	SetChar(29, "oooo:", "::::o", "::oo:", "::::o", "oooo:" );

	push	OFFSET ??_C@_05KJJKLGHO@oooo?3?$AA@
	push	OFFSET ??_C@_05FEECNFFL@?3?3?3?3o?$AA@
	push	OFFSET ??_C@_05FCKGPIB@?3?3oo?3?$AA@
	push	OFFSET ??_C@_05FEECNFFL@?3?3?3?3o?$AA@
	push	OFFSET ??_C@_05KJJKLGHO@oooo?3?$AA@
	push	29					; 0000001dH
	mov	ecx, esi
	call	?SetChar@Surface@Raytracer@@QAEXHPAD0000@Z ; Raytracer::Surface::SetChar

; 97   : 	SetChar(30, "o::::", "o::o:", "ooooo", ":::o:", ":::o:" );

	push	OFFSET ??_C@_05PJPJJABB@?3?3?3o?3?$AA@
	push	OFFSET ??_C@_05PJPJJABB@?3?3?3o?3?$AA@
	push	OFFSET ??_C@_05GOFGBPGP@ooooo?$AA@
	push	OFFSET ??_C@_05KFLKAJFF@o?3?3o?3?$AA@
	push	OFFSET ??_C@_05MPMNOFAO@o?3?3?3?3?$AA@
	push	30					; 0000001eH
	mov	ecx, esi
	call	?SetChar@Surface@Raytracer@@QAEXHPAD0000@Z ; Raytracer::Surface::SetChar

; 98   : 	SetChar(31, "ooooo", "o::::", "oooo:", "::::o", "oooo:" );

	push	OFFSET ??_C@_05KJJKLGHO@oooo?3?$AA@
	push	OFFSET ??_C@_05FEECNFFL@?3?3?3?3o?$AA@
	push	OFFSET ??_C@_05KJJKLGHO@oooo?3?$AA@
	push	OFFSET ??_C@_05MPMNOFAO@o?3?3?3?3?$AA@
	push	OFFSET ??_C@_05GOFGBPGP@ooooo?$AA@
	push	31					; 0000001fH
	mov	ecx, esi
	call	?SetChar@Surface@Raytracer@@QAEXHPAD0000@Z ; Raytracer::Surface::SetChar

; 99   : 	SetChar(32, ":oooo", "o::::", "oooo:", "o:::o", ":ooo:" );

	push	OFFSET ??_C@_05PFNJCPDK@?3ooo?3?$AA@
	push	OFFSET ??_C@_05IABEMBP@o?3?3?3o?$AA@
	push	OFFSET ??_C@_05KJJKLGHO@oooo?3?$AA@
	push	OFFSET ??_C@_05MPMNOFAO@o?3?3?3?3?$AA@
	push	OFFSET ??_C@_05DCBFIGCL@?3oooo?$AA@
	push	32					; 00000020H
	mov	ecx, esi
	call	?SetChar@Surface@Raytracer@@QAEXHPAD0000@Z ; Raytracer::Surface::SetChar

; 100  : 	SetChar(33, "ooooo", "::::o", ":::o:", "::o::", "::o::" );

	push	OFFSET ??_C@_05GPFNIDNK@?3?3o?3?3?$AA@
	push	OFFSET ??_C@_05GPFNIDNK@?3?3o?3?3?$AA@
	push	OFFSET ??_C@_05PJPJJABB@?3?3?3o?3?$AA@
	push	OFFSET ??_C@_05FEECNFFL@?3?3?3?3o?$AA@
	push	OFFSET ??_C@_05GOFGBPGP@ooooo?$AA@
	push	33					; 00000021H
	mov	ecx, esi
	call	?SetChar@Surface@Raytracer@@QAEXHPAD0000@Z ; Raytracer::Surface::SetChar

; 101  : 	SetChar(34, ":ooo:", "o:::o", ":ooo:", "o:::o", ":ooo:" );

	push	OFFSET ??_C@_05PFNJCPDK@?3ooo?3?$AA@
	push	OFFSET ??_C@_05IABEMBP@o?3?3?3o?$AA@
	push	OFFSET ??_C@_05PFNJCPDK@?3ooo?3?$AA@
	push	OFFSET ??_C@_05IABEMBP@o?3?3?3o?$AA@
	push	OFFSET ??_C@_05PFNJCPDK@?3ooo?3?$AA@
	push	34					; 00000022H
	mov	ecx, esi
	call	?SetChar@Surface@Raytracer@@QAEXHPAD0000@Z ; Raytracer::Surface::SetChar

; 102  : 	SetChar(35, ":ooo:", "o:::o", ":oooo", "::::o", ":ooo:" );

	push	OFFSET ??_C@_05PFNJCPDK@?3ooo?3?$AA@
	push	OFFSET ??_C@_05FEECNFFL@?3?3?3?3o?$AA@
	push	OFFSET ??_C@_05DCBFIGCL@?3oooo?$AA@
	push	OFFSET ??_C@_05IABEMBP@o?3?3?3o?$AA@
	push	OFFSET ??_C@_05PFNJCPDK@?3ooo?3?$AA@
	push	35					; 00000023H
	mov	ecx, esi
	call	?SetChar@Surface@Raytracer@@QAEXHPAD0000@Z ; Raytracer::Surface::SetChar

; 103  : 	SetChar(36, "::o::", "::o::", "::o::", ":::::", "::o::" );

	push	OFFSET ??_C@_05GPFNIDNK@?3?3o?3?3?$AA@
	push	OFFSET ??_C@_05JDIOHMEK@?3?3?3?3?3?$AA@
	push	OFFSET ??_C@_05GPFNIDNK@?3?3o?3?3?$AA@
	push	OFFSET ??_C@_05GPFNIDNK@?3?3o?3?3?$AA@
	push	OFFSET ??_C@_05GPFNIDNK@?3?3o?3?3?$AA@
	push	36					; 00000024H
	mov	ecx, esi
	call	?SetChar@Surface@Raytracer@@QAEXHPAD0000@Z ; Raytracer::Surface::SetChar

; 104  : 	SetChar(37, ":ooo:", "::::o", ":::o:", ":::::", "::o::" );

	push	OFFSET ??_C@_05GPFNIDNK@?3?3o?3?3?$AA@
	push	OFFSET ??_C@_05JDIOHMEK@?3?3?3?3?3?$AA@
	push	OFFSET ??_C@_05PJPJJABB@?3?3?3o?3?$AA@
	push	OFFSET ??_C@_05FEECNFFL@?3?3?3?3o?$AA@
	push	OFFSET ??_C@_05PFNJCPDK@?3ooo?3?$AA@
	push	37					; 00000025H
	mov	ecx, esi
	call	?SetChar@Surface@Raytracer@@QAEXHPAD0000@Z ; Raytracer::Surface::SetChar

; 105  : 	SetChar(38, ":::::", ":::::", "::o::", ":::::", "::o::" );

	push	OFFSET ??_C@_05GPFNIDNK@?3?3o?3?3?$AA@
	push	OFFSET ??_C@_05JDIOHMEK@?3?3?3?3?3?$AA@
	push	OFFSET ??_C@_05GPFNIDNK@?3?3o?3?3?$AA@
	push	OFFSET ??_C@_05JDIOHMEK@?3?3?3?3?3?$AA@
	push	OFFSET ??_C@_05JDIOHMEK@?3?3?3?3?3?$AA@
	push	38					; 00000026H
	mov	ecx, esi
	call	?SetChar@Surface@Raytracer@@QAEXHPAD0000@Z ; Raytracer::Surface::SetChar

; 106  : 	SetChar(39, ":::::", ":::::", ":ooo:", ":::::", ":ooo:" );

	push	OFFSET ??_C@_05PFNJCPDK@?3ooo?3?$AA@
	push	OFFSET ??_C@_05JDIOHMEK@?3?3?3?3?3?$AA@
	push	OFFSET ??_C@_05PFNJCPDK@?3ooo?3?$AA@
	push	OFFSET ??_C@_05JDIOHMEK@?3?3?3?3?3?$AA@
	push	OFFSET ??_C@_05JDIOHMEK@?3?3?3?3?3?$AA@
	push	39					; 00000027H
	mov	ecx, esi
	call	?SetChar@Surface@Raytracer@@QAEXHPAD0000@Z ; Raytracer::Surface::SetChar

; 107  : 	SetChar(40, ":::::", ":::::", ":::::", ":::o:", "::o::" );

	push	OFFSET ??_C@_05GPFNIDNK@?3?3o?3?3?$AA@
	push	OFFSET ??_C@_05PJPJJABB@?3?3?3o?3?$AA@
	push	OFFSET ??_C@_05JDIOHMEK@?3?3?3?3?3?$AA@
	push	OFFSET ??_C@_05JDIOHMEK@?3?3?3?3?3?$AA@
	push	OFFSET ??_C@_05JDIOHMEK@?3?3?3?3?3?$AA@
	push	40					; 00000028H
	mov	ecx, esi
	call	?SetChar@Surface@Raytracer@@QAEXHPAD0000@Z ; Raytracer::Surface::SetChar

; 108  : 	SetChar(41, ":::::", ":::::", ":::::", ":::::", "::o::" );

	push	OFFSET ??_C@_05GPFNIDNK@?3?3o?3?3?$AA@
	push	OFFSET ??_C@_05JDIOHMEK@?3?3?3?3?3?$AA@
	push	OFFSET ??_C@_05JDIOHMEK@?3?3?3?3?3?$AA@
	push	OFFSET ??_C@_05JDIOHMEK@?3?3?3?3?3?$AA@
	push	OFFSET ??_C@_05JDIOHMEK@?3?3?3?3?3?$AA@
	push	41					; 00000029H
	mov	ecx, esi
	call	?SetChar@Surface@Raytracer@@QAEXHPAD0000@Z ; Raytracer::Surface::SetChar

; 109  : 	SetChar(42, ":::::", ":::::", ":ooo:", ":::::", ":::::" );

	push	OFFSET ??_C@_05JDIOHMEK@?3?3?3?3?3?$AA@
	push	OFFSET ??_C@_05JDIOHMEK@?3?3?3?3?3?$AA@
	push	OFFSET ??_C@_05PFNJCPDK@?3ooo?3?$AA@
	push	OFFSET ??_C@_05JDIOHMEK@?3?3?3?3?3?$AA@
	push	OFFSET ??_C@_05JDIOHMEK@?3?3?3?3?3?$AA@
	push	42					; 0000002aH
	mov	ecx, esi
	call	?SetChar@Surface@Raytracer@@QAEXHPAD0000@Z ; Raytracer::Surface::SetChar

; 110  : 	SetChar(43, ":::o:", "::o::", "::o::", "::o::", ":::o:" );

	push	OFFSET ??_C@_05PJPJJABB@?3?3?3o?3?$AA@
	push	OFFSET ??_C@_05GPFNIDNK@?3?3o?3?3?$AA@
	push	OFFSET ??_C@_05GPFNIDNK@?3?3o?3?3?$AA@
	push	OFFSET ??_C@_05GPFNIDNK@?3?3o?3?3?$AA@
	push	OFFSET ??_C@_05PJPJJABB@?3?3?3o?3?$AA@
	push	43					; 0000002bH
	mov	ecx, esi
	call	?SetChar@Surface@Raytracer@@QAEXHPAD0000@Z ; Raytracer::Surface::SetChar

; 111  : 	SetChar(44, "::o::", ":::o:", ":::o:", ":::o:", "::o::" );

	push	OFFSET ??_C@_05GPFNIDNK@?3?3o?3?3?$AA@
	push	OFFSET ??_C@_05PJPJJABB@?3?3?3o?3?$AA@
	push	OFFSET ??_C@_05PJPJJABB@?3?3?3o?3?$AA@
	push	OFFSET ??_C@_05PJPJJABB@?3?3?3o?3?$AA@
	push	OFFSET ??_C@_05GPFNIDNK@?3?3o?3?3?$AA@
	push	44					; 0000002cH
	mov	ecx, esi
	call	?SetChar@Surface@Raytracer@@QAEXHPAD0000@Z ; Raytracer::Surface::SetChar

; 112  : 	SetChar(45, ":::::", ":::::", ":::::", ":::::", ":::::" );

	push	OFFSET ??_C@_05JDIOHMEK@?3?3?3?3?3?$AA@
	push	OFFSET ??_C@_05JDIOHMEK@?3?3?3?3?3?$AA@
	push	OFFSET ??_C@_05JDIOHMEK@?3?3?3?3?3?$AA@
	push	OFFSET ??_C@_05JDIOHMEK@?3?3?3?3?3?$AA@
	push	OFFSET ??_C@_05JDIOHMEK@?3?3?3?3?3?$AA@
	push	45					; 0000002dH
	mov	ecx, esi
	call	?SetChar@Surface@Raytracer@@QAEXHPAD0000@Z ; Raytracer::Surface::SetChar

; 113  : 	SetChar(46, "ooooo", "ooooo", "ooooo", "ooooo", "ooooo" );

	push	OFFSET ??_C@_05GOFGBPGP@ooooo?$AA@
	push	OFFSET ??_C@_05GOFGBPGP@ooooo?$AA@
	push	OFFSET ??_C@_05GOFGBPGP@ooooo?$AA@
	push	OFFSET ??_C@_05GOFGBPGP@ooooo?$AA@
	push	OFFSET ??_C@_05GOFGBPGP@ooooo?$AA@
	push	46					; 0000002eH
	mov	ecx, esi
	call	?SetChar@Surface@Raytracer@@QAEXHPAD0000@Z ; Raytracer::Surface::SetChar

; 114  : 	SetChar(47, "::o::", "::o::", ":::::", ":::::", ":::::" ); // Tnx Ferry

	push	OFFSET ??_C@_05JDIOHMEK@?3?3?3?3?3?$AA@
	push	OFFSET ??_C@_05JDIOHMEK@?3?3?3?3?3?$AA@
	push	OFFSET ??_C@_05JDIOHMEK@?3?3?3?3?3?$AA@
	push	OFFSET ??_C@_05GPFNIDNK@?3?3o?3?3?$AA@
	push	OFFSET ??_C@_05GPFNIDNK@?3?3o?3?3?$AA@
	push	47					; 0000002fH
	mov	ecx, esi
	call	?SetChar@Surface@Raytracer@@QAEXHPAD0000@Z ; Raytracer::Surface::SetChar

; 115  : 	SetChar(48, "o:o:o", ":ooo:", "ooooo", ":ooo:", "o:o:o" );

	push	OFFSET ??_C@_05PENCLDIP@o?3o?3o?$AA@
	push	OFFSET ??_C@_05PFNJCPDK@?3ooo?3?$AA@
	push	OFFSET ??_C@_05GOFGBPGP@ooooo?$AA@
	push	OFFSET ??_C@_05PFNJCPDK@?3ooo?3?$AA@
	push	OFFSET ??_C@_05PENCLDIP@o?3o?3o?$AA@
	push	48					; 00000030H
	mov	ecx, esi
	call	?SetChar@Surface@Raytracer@@QAEXHPAD0000@Z ; Raytracer::Surface::SetChar

; 116  : 	SetChar(49, "::::o", ":::o:", "::o::", ":o:::", "o::::" );

	push	OFFSET ??_C@_05MPMNOFAO@o?3?3?3?3?$AA@
	push	OFFSET ??_C@_05GDHNDMPB@?3o?3?3?3?$AA@
	push	OFFSET ??_C@_05GPFNIDNK@?3?3o?3?3?$AA@
	push	OFFSET ??_C@_05PJPJJABB@?3?3?3o?3?$AA@
	push	OFFSET ??_C@_05FEECNFFL@?3?3?3?3o?$AA@
	push	49					; 00000031H
	mov	ecx, esi
	call	?SetChar@Surface@Raytracer@@QAEXHPAD0000@Z ; Raytracer::Surface::SetChar

; 117  : 	char c[] = "abcdefghijklmnopqrstuvwxyz0123456789!?:=,.-() #'*/";

	movdqu	xmm0, XMMWORD PTR ??_C@_0DD@NFPEACHO@abcdefghijklmnopqrstuvwxyz012345@
	movdqu	XMMWORD PTR _c$[ebp], xmm0
	movdqu	xmm0, XMMWORD PTR ??_C@_0DD@NFPEACHO@abcdefghijklmnopqrstuvwxyz012345@+16
	mov	ax, WORD PTR ??_C@_0DD@NFPEACHO@abcdefghijklmnopqrstuvwxyz012345@+48
	lea	edi, DWORD PTR [esi+1288]
	mov	WORD PTR _c$[ebp+48], ax

; 118  : 	int i;
; 119  : 	for ( i = 0; i < 256; i++ ) s_Transl[i] = 45;

	mov	ecx, 256				; 00000100H
	mov	al, BYTE PTR ??_C@_0DD@NFPEACHO@abcdefghijklmnopqrstuvwxyz012345@+50
	movdqu	XMMWORD PTR _c$[ebp+16], xmm0
	mov	BYTE PTR _c$[ebp+50], al
	mov	eax, 45					; 0000002dH
	movdqu	xmm0, XMMWORD PTR ??_C@_0DD@NFPEACHO@abcdefghijklmnopqrstuvwxyz012345@+32
	rep stosd
	movdqu	XMMWORD PTR _c$[ebp+32], xmm0

; 120  : 	for ( i = 0; i < 50; i++ ) s_Transl[(unsigned char)c[i]] = i;

	xor	eax, eax
$LL3@InitCharse:
	movzx	ecx, BYTE PTR _c$[ebp+eax]
	mov	DWORD PTR [esi+ecx*4+1288], eax
	inc	eax
	cmp	eax, 50					; 00000032H
	jl	SHORT $LL3@InitCharse

; 121  : }

	mov	ecx, DWORD PTR __$ArrayPad$[ebp]
	pop	edi
	xor	ecx, ebp
	pop	esi
	call	@__security_check_cookie@4
	mov	esp, ebp
	pop	ebp
	ret	0
?InitCharset@Surface@Raytracer@@QAEXXZ ENDP		; Raytracer::Surface::InitCharset
_TEXT	ENDS
; Function compile flags: /Ogtp
; File f:\baiduyundownload\lab&dom\class\cg\hw2\raytracer7\surface.cpp
;	COMDAT ??1Surface@Raytracer@@QAE@XZ
_TEXT	SEGMENT
??1Surface@Raytracer@@QAE@XZ PROC			; Raytracer::Surface::~Surface, COMDAT
; _this$ = ecx

; 26   : 	delete [] m_Buffer;

	push	DWORD PTR [ecx]
	call	??3@YAXPAX@Z				; operator delete
	pop	ecx

; 27   : }

	ret	0
??1Surface@Raytracer@@QAE@XZ ENDP			; Raytracer::Surface::~Surface
_TEXT	ENDS
; Function compile flags: /Ogtp
; File f:\baiduyundownload\lab&dom\class\cg\hw2\raytracer7\surface.cpp
;	COMDAT ??0Surface@Raytracer@@QAE@HH@Z
_TEXT	SEGMENT
_a_Width$ = 8						; size = 4
_a_Height$ = 12						; size = 4
??0Surface@Raytracer@@QAE@HH@Z PROC			; Raytracer::Surface::Surface, COMDAT
; _this$ = ecx

; 20   : {

	push	ebp
	mov	ebp, esp
	mov	eax, DWORD PTR _a_Width$[ebp]
	mov	edx, DWORD PTR _a_Height$[ebp]
	push	esi
	mov	esi, ecx

; 21   : 	m_Buffer = new Pixel[a_Width * a_Height];

	xor	ecx, ecx
	mov	DWORD PTR [esi+4], eax
	imul	eax, edx
	mov	DWORD PTR [esi+8], edx
	mov	edx, 4
	mul	edx
	seto	cl
	neg	ecx
	or	ecx, eax
	push	ecx
	call	??2@YAPAXI@Z				; operator new
	add	esp, 4
	mov	DWORD PTR [esi], eax

; 22   : }

	mov	eax, esi
	pop	esi
	pop	ebp
	ret	8
??0Surface@Raytracer@@QAE@HH@Z ENDP			; Raytracer::Surface::Surface
_TEXT	ENDS
END
